; ModuleID = 'source-C-CXX/26/218.c'
source_filename = "source-C-CXX/26/218.c"
target datalayout = "e-m:e-p270:32:32-p271:32:32-p272:64:64-i64:64-f80:128-n8:16:32:64-S128"
target triple = "x86_64-pc-linux-gnu"

%struct._IO_FILE = type { i32, i8*, i8*, i8*, i8*, i8*, i8*, i8*, i8*, i8*, i8*, i8*, %struct._IO_marker*, %struct._IO_FILE*, i32, i32, i64, i16, i8, [1 x i8], i8*, i64, %struct._IO_codecvt*, %struct._IO_wide_data*, %struct._IO_FILE*, i8*, i64, i32, [20 x i8] }
%struct._IO_marker = type opaque
%struct._IO_codecvt = type opaque
%struct._IO_wide_data = type opaque

@.str = private unnamed_addr constant [3 x i8] c"%d\00", align 1
@.str.1 = private unnamed_addr constant [11 x i8] c"%lf%lf%lf\0A\00", align 1
@.str.2 = private unnamed_addr constant [19 x i8] c"x1=%.5lf;x2=%.5lf\0A\00", align 1
@.str.3 = private unnamed_addr constant [13 x i8] c"x1=x2=%.5lf\0A\00", align 1
@.str.4 = private unnamed_addr constant [33 x i8] c"x1=%.5lf+%.5lfi;x2=%.5lf-%.5lfi\0A\00", align 1
@.str.5 = private unnamed_addr constant [37 x i8] c"x1=0.00000+%.5lfi;x2=0.00000-%.5lfi\0A\00", align 1
@stdin = external local_unnamed_addr global %struct._IO_FILE*, align 8

; Function Attrs: nofree nounwind sspstrong uwtable
define dso_local i32 @main() local_unnamed_addr #0 {
  %1 = alloca i32, align 4
  %2 = alloca double, align 8
  %3 = alloca double, align 8
  %4 = alloca double, align 8
  %5 = alloca [100 x [3 x double]], align 16
  %6 = bitcast i32* %1 to i8*
  call void @llvm.lifetime.start.p0i8(i64 4, i8* nonnull %6) #4
  %7 = bitcast double* %2 to i8*
  call void @llvm.lifetime.start.p0i8(i64 8, i8* nonnull %7) #4
  %8 = bitcast double* %3 to i8*
  call void @llvm.lifetime.start.p0i8(i64 8, i8* nonnull %8) #4
  %9 = bitcast double* %4 to i8*
  call void @llvm.lifetime.start.p0i8(i64 8, i8* nonnull %9) #4
  %10 = call i32 (i8*, ...) @__isoc99_scanf(i8* getelementptr inbounds ([3 x i8], [3 x i8]* @.str, i64 0, i64 0), i32* nonnull %1)
  %11 = bitcast [100 x [3 x double]]* %5 to i8*
  call void @llvm.lifetime.start.p0i8(i64 2400, i8* nonnull %11) #4
  %12 = load i32, i32* %1, align 4, !tbaa !5
  %13 = icmp sgt i32 %12, 0
  br i1 %13, label %16, label %78

14:                                               ; preds = %16
  %15 = icmp sgt i32 %26, 0
  br i1 %15, label %29, label %78

16:                                               ; preds = %0, %16
  %17 = phi i64 [ %25, %16 ], [ 0, %0 ]
  %18 = call i32 (i8*, ...) @__isoc99_scanf(i8* getelementptr inbounds ([11 x i8], [11 x i8]* @.str.1, i64 0, i64 0), double* nonnull %2, double* nonnull %3, double* nonnull %4)
  %19 = load double, double* %2, align 8, !tbaa !9
  %20 = getelementptr inbounds [100 x [3 x double]], [100 x [3 x double]]* %5, i64 0, i64 %17, i64 0
  store double %19, double* %20, align 8, !tbaa !9
  %21 = load double, double* %3, align 8, !tbaa !9
  %22 = getelementptr inbounds [100 x [3 x double]], [100 x [3 x double]]* %5, i64 0, i64 %17, i64 1
  store double %21, double* %22, align 8, !tbaa !9
  %23 = load double, double* %4, align 8, !tbaa !9
  %24 = getelementptr inbounds [100 x [3 x double]], [100 x [3 x double]]* %5, i64 0, i64 %17, i64 2
  store double %23, double* %24, align 8, !tbaa !9
  %25 = add nuw nsw i64 %17, 1
  %26 = load i32, i32* %1, align 4, !tbaa !5
  %27 = sext i32 %26 to i64
  %28 = icmp slt i64 %25, %27
  br i1 %28, label %16, label %14, !llvm.loop !11

29:                                               ; preds = %14, %73
  %30 = phi i64 [ %74, %73 ], [ 0, %14 ]
  %31 = getelementptr inbounds [100 x [3 x double]], [100 x [3 x double]]* %5, i64 0, i64 %30, i64 0
  %32 = load double, double* %31, align 8, !tbaa !9
  %33 = getelementptr inbounds [100 x [3 x double]], [100 x [3 x double]]* %5, i64 0, i64 %30, i64 1
  %34 = bitcast double* %33 to <2 x double>*
  %35 = load <2 x double>, <2 x double>* %34, align 8, !tbaa !9
  %36 = fmul double %32, 4.000000e+00
  %37 = extractelement <2 x double> %35, i32 0
  %38 = insertelement <2 x double> %35, double %36, i32 1
  %39 = fmul <2 x double> %35, %38
  %40 = shufflevector <2 x double> %39, <2 x double> poison, <2 x i32> <i32 1, i32 undef>
  %41 = fsub <2 x double> %39, %40
  %42 = extractelement <2 x double> %41, i32 0
  %43 = fcmp ogt double %42, 0.000000e+00
  br i1 %43, label %44, label %54

44:                                               ; preds = %29
  %45 = fmul double %32, 2.000000e+00
  %46 = fneg double %37
  %47 = call double @sqrt(double %42) #4
  %48 = fsub double %47, %37
  %49 = fdiv double %48, %45
  %50 = call double @sqrt(double %42) #4
  %51 = fsub double %46, %50
  %52 = fdiv double %51, %45
  %53 = call i32 (i8*, ...) @printf(i8* nonnull dereferenceable(1) getelementptr inbounds ([19 x i8], [19 x i8]* @.str.2, i64 0, i64 0), double %49, double %52)
  br label %73

54:                                               ; preds = %29
  %55 = fcmp oeq double %42, 0.000000e+00
  br i1 %55, label %56, label %61

56:                                               ; preds = %54
  %57 = fneg double %37
  %58 = fmul double %32, 2.000000e+00
  %59 = fdiv double %57, %58
  %60 = call i32 (i8*, ...) @printf(i8* nonnull dereferenceable(1) getelementptr inbounds ([13 x i8], [13 x i8]* @.str.3, i64 0, i64 0), double %59)
  br label %73

61:                                               ; preds = %54
  %62 = fneg double %42
  %63 = call double @sqrt(double %62) #4
  %64 = fmul double %32, 2.000000e+00
  %65 = fdiv double %63, %64
  %66 = fneg double %37
  %67 = fdiv double %66, %64
  %68 = fcmp une double %67, 0.000000e+00
  br i1 %68, label %69, label %71

69:                                               ; preds = %61
  %70 = call i32 (i8*, ...) @printf(i8* nonnull dereferenceable(1) getelementptr inbounds ([33 x i8], [33 x i8]* @.str.4, i64 0, i64 0), double %67, double %65, double %67, double %65)
  br label %73

71:                                               ; preds = %61
  %72 = call i32 (i8*, ...) @printf(i8* nonnull dereferenceable(1) getelementptr inbounds ([37 x i8], [37 x i8]* @.str.5, i64 0, i64 0), double %65, double %65)
  br label %73

73:                                               ; preds = %44, %69, %71, %56
  %74 = add nuw nsw i64 %30, 1
  %75 = load i32, i32* %1, align 4, !tbaa !5
  %76 = sext i32 %75 to i64
  %77 = icmp slt i64 %74, %76
  br i1 %77, label %29, label %78, !llvm.loop !13

78:                                               ; preds = %73, %0, %14
  %79 = load %struct._IO_FILE*, %struct._IO_FILE** @stdin, align 8, !tbaa !14
  %80 = call i32 @getc(%struct._IO_FILE* %79) #4
  %81 = load %struct._IO_FILE*, %struct._IO_FILE** @stdin, align 8, !tbaa !14
  %82 = call i32 @getc(%struct._IO_FILE* %81) #4
  %83 = load %struct._IO_FILE*, %struct._IO_FILE** @stdin, align 8, !tbaa !14
  %84 = call i32 @getc(%struct._IO_FILE* %83) #4
  %85 = load %struct._IO_FILE*, %struct._IO_FILE** @stdin, align 8, !tbaa !14
  %86 = call i32 @getc(%struct._IO_FILE* %85) #4
  call void @llvm.lifetime.end.p0i8(i64 2400, i8* nonnull %11) #4
  call void @llvm.lifetime.end.p0i8(i64 8, i8* nonnull %9) #4
  call void @llvm.lifetime.end.p0i8(i64 8, i8* nonnull %8) #4
  call void @llvm.lifetime.end.p0i8(i64 8, i8* nonnull %7) #4
  call void @llvm.lifetime.end.p0i8(i64 4, i8* nonnull %6) #4
  ret i32 0
}

; Function Attrs: argmemonly mustprogress nofree nosync nounwind willreturn
declare void @llvm.lifetime.start.p0i8(i64 immarg, i8* nocapture) #1

; Function Attrs: nofree nounwind
declare noundef i32 @__isoc99_scanf(i8* nocapture noundef readonly, ...) local_unnamed_addr #2

; Function Attrs: mustprogress nofree nounwind willreturn
declare double @sqrt(double) local_unnamed_addr #3

; Function Attrs: nofree nounwind
declare noundef i32 @printf(i8* nocapture noundef readonly, ...) local_unnamed_addr #2

; Function Attrs: argmemonly mustprogress nofree nosync nounwind willreturn
declare void @llvm.lifetime.end.p0i8(i64 immarg, i8* nocapture) #1

; Function Attrs: nofree nounwind
declare noundef i32 @getc(%struct._IO_FILE* nocapture noundef) local_unnamed_addr #2


!llvm.module.flags = !{!0, !1, !2, !3}
!llvm.ident = !{!4}

!0 = !{i32 1, !"wchar_size", i32 4}
!1 = !{i32 7, !"PIC Level", i32 2}
!2 = !{i32 7, !"PIE Level", i32 2}
!3 = !{i32 7, !"uwtable", i32 1}
!4 = !{!"clang version 13.0.0"}
!5 = !{!6, !6, i64 0}
!6 = !{!"int", !7, i64 0}
!7 = !{!"omnipotent char", !8, i64 0}
!8 = !{!"Simple C/C++ TBAA"}
!9 = !{!10, !10, i64 0}
!10 = !{!"double", !7, i64 0}
!11 = distinct !{!11, !12}
!12 = !{!"llvm.loop.mustprogress"}
!13 = distinct !{!13, !12}
!14 = !{!15, !15, i64 0}
!15 = !{!"any pointer", !7, i64 0}
